	.file	"test.cpp"
	.text
Ltext0:
	.section .rdata,"dr"
__ZStL19piecewise_construct:
	.space 1
.lcomm __ZStL8__ioinit,1,1
LC0:
	.ascii "Test 01 executed\0"
	.text
	.globl	__Z7test_01v
	.def	__Z7test_01v;	.scl	2;	.type	32;	.endef
__Z7test_01v:
LFB1445:
	.file 1 "test.cpp"
	.loc 1 6 0
	.cfi_startproc
	pushl	%ebp
	.cfi_def_cfa_offset 8
	.cfi_offset 5, -8
	movl	%esp, %ebp
	.cfi_def_cfa_register 5
	subl	$24, %esp
	.loc 1 7 0
	movl	$LC0, 4(%esp)
	movl	$__ZSt4cout, (%esp)
	call	__ZStlsISt11char_traitsIcEERSt13basic_ostreamIcT_ES5_PKc
	.loc 1 8 0
	nop
	leave
	.cfi_restore 5
	.cfi_def_cfa 4, 4
	ret
	.cfi_endproc
LFE1445:
	.section .rdata,"dr"
LC1:
	.ascii "Test 02 executed\0"
	.text
	.globl	__Z7test_02v
	.def	__Z7test_02v;	.scl	2;	.type	32;	.endef
__Z7test_02v:
LFB1446:
	.loc 1 12 0
	.cfi_startproc
	pushl	%ebp
	.cfi_def_cfa_offset 8
	.cfi_offset 5, -8
	movl	%esp, %ebp
	.cfi_def_cfa_register 5
	subl	$24, %esp
	.loc 1 13 0
	movl	$LC1, 4(%esp)
	movl	$__ZSt4cout, (%esp)
	call	__ZStlsISt11char_traitsIcEERSt13basic_ostreamIcT_ES5_PKc
	.loc 1 14 0
	nop
	leave
	.cfi_restore 5
	.cfi_def_cfa 4, 4
	ret
	.cfi_endproc
LFE1446:
	.def	___tcf_0;	.scl	3;	.type	32;	.endef
___tcf_0:
LFB1874:
	.file 2 "c:/mingw/lib/gcc/mingw32/6.3.0/include/c++/iostream"
	.loc 2 74 0
	.cfi_startproc
	pushl	%ebp
	.cfi_def_cfa_offset 8
	.cfi_offset 5, -8
	movl	%esp, %ebp
	.cfi_def_cfa_register 5
	subl	$8, %esp
	.loc 2 74 0
	movl	$__ZStL8__ioinit, %ecx
	call	__ZNSt8ios_base4InitD1Ev
	leave
	.cfi_restore 5
	.cfi_def_cfa 4, 4
	ret
	.cfi_endproc
LFE1874:
	.def	__Z41__static_initialization_and_destruction_0ii;	.scl	3;	.type	32;	.endef
__Z41__static_initialization_and_destruction_0ii:
LFB1873:
	.loc 1 14 0
	.cfi_startproc
	pushl	%ebp
	.cfi_def_cfa_offset 8
	.cfi_offset 5, -8
	movl	%esp, %ebp
	.cfi_def_cfa_register 5
	subl	$24, %esp
	.loc 1 14 0
	cmpl	$1, 8(%ebp)
	jne	L6
	.loc 1 14 0 is_stmt 0 discriminator 1
	cmpl	$65535, 12(%ebp)
	jne	L6
	.loc 2 74 0 is_stmt 1
	movl	$__ZStL8__ioinit, %ecx
	call	__ZNSt8ios_base4InitC1Ev
	movl	$___tcf_0, (%esp)
	call	_atexit
L6:
	.loc 1 14 0
	nop
	leave
	.cfi_restore 5
	.cfi_def_cfa 4, 4
	ret
	.cfi_endproc
LFE1873:
	.def	__GLOBAL__sub_I__Z7test_01v;	.scl	3;	.type	32;	.endef
__GLOBAL__sub_I__Z7test_01v:
LFB1875:
	.loc 1 14 0
	.cfi_startproc
	pushl	%ebp
	.cfi_def_cfa_offset 8
	.cfi_offset 5, -8
	movl	%esp, %ebp
	.cfi_def_cfa_register 5
	subl	$24, %esp
	.loc 1 14 0
	movl	$65535, 4(%esp)
	movl	$1, (%esp)
	call	__Z41__static_initialization_and_destruction_0ii
	leave
	.cfi_restore 5
	.cfi_def_cfa 4, 4
	ret
	.cfi_endproc
LFE1875:
	.section	.ctors,"w"
	.align 4
	.long	__GLOBAL__sub_I__Z7test_01v
	.text
Letext0:
	.file 3 "c:/mingw/lib/gcc/mingw32/6.3.0/include/c++/cwchar"
	.file 4 "<built-in>"
	.file 5 "c:/mingw/lib/gcc/mingw32/6.3.0/include/c++/bits/exception_ptr.h"
	.file 6 "c:/mingw/lib/gcc/mingw32/6.3.0/include/c++/type_traits"
	.file 7 "c:/mingw/lib/gcc/mingw32/6.3.0/include/c++/mingw32/bits/c++config.h"
	.file 8 "c:/mingw/lib/gcc/mingw32/6.3.0/include/c++/bits/cpp_type_traits.h"
	.file 9 "c:/mingw/lib/gcc/mingw32/6.3.0/include/c++/debug/debug.h"
	.file 10 "c:/mingw/lib/gcc/mingw32/6.3.0/include/c++/bits/char_traits.h"
	.file 11 "c:/mingw/lib/gcc/mingw32/6.3.0/include/c++/bits/stl_pair.h"
	.file 12 "c:/mingw/lib/gcc/mingw32/6.3.0/include/c++/cstdint"
	.file 13 "c:/mingw/lib/gcc/mingw32/6.3.0/include/c++/clocale"
	.file 14 "c:/mingw/lib/gcc/mingw32/6.3.0/include/c++/new"
	.file 15 "c:/mingw/lib/gcc/mingw32/6.3.0/include/c++/cstdlib"
	.file 16 "c:/mingw/lib/gcc/mingw32/6.3.0/include/c++/cstdio"
	.file 17 "c:/mingw/lib/gcc/mingw32/6.3.0/include/c++/bits/basic_string.h"
	.file 18 "c:/mingw/lib/gcc/mingw32/6.3.0/include/c++/system_error"
	.file 19 "c:/mingw/lib/gcc/mingw32/6.3.0/include/c++/bits/ios_base.h"
	.file 20 "c:/mingw/lib/gcc/mingw32/6.3.0/include/c++/cwctype"
	.file 21 "c:/mingw/lib/gcc/mingw32/6.3.0/include/c++/iosfwd"
	.file 22 "c:/mingw/lib/gcc/mingw32/6.3.0/include/c++/bits/predefined_ops.h"
	.file 23 "c:/mingw/lib/gcc/mingw32/6.3.0/include/c++/ext/new_allocator.h"
	.file 24 "c:/mingw/lib/gcc/mingw32/6.3.0/include/c++/ext/numeric_traits.h"
	.file 25 "c:/mingw/lib/gcc/mingw32/6.3.0/include/stddef.h"
	.file 26 "c:/mingw/include/wctype.h"
	.file 27 "c:/mingw/include/stdio.h"
	.file 28 "c:/mingw/include/stdint.h"
	.file 29 "c:/mingw/include/wchar.h"
	.file 30 "c:/mingw/include/time.h"
	.file 31 "c:/mingw/include/stdlib.h"
	.file 32 "c:/mingw/include/locale.h"
	.file 33 "c:/mingw/include/ctype.h"
	.file 34 "c:/mingw/lib/gcc/mingw32/6.3.0/include/c++/mingw32/bits/gthr-default.h"
	.file 35 "c:/mingw/lib/gcc/mingw32/6.3.0/include/c++/mingw32/bits/atomic_word.h"